; Function Attrs: nounwind uwtable
define i32 @wolfSSL_NewThreadNoJoin(ptr noundef %0, ptr noundef %1) local_unnamed_addr #2 {
  %3 = alloca i64, align 8
  call void @llvm.lifetime.start.p0(i64 8, ptr nonnull %3) #16
  store i64 0, ptr %3, align 8
  %4 = icmp eq ptr %0, null
  br i1 %4, label %wolfSSL_NewThread.exit.thread, label %5

5:                                                ; preds = %2
  %6 = call i32 @pthread_create(ptr noundef nonnull %3, ptr noundef null, ptr noundef nonnull %0, ptr noundef %1) #16
  %.not.i = icmp eq i32 %6, 0
  br i1 %.not.i, label %wolfSSL_NewThread.exit, label %wolfSSL_NewThread.exit.thread

wolfSSL_NewThread.exit:                           ; preds = %5
  %7 = load i64, ptr %3, align 8, !tbaa !10
  %8 = call i32 @pthread_detach(i64 noundef %7) #16
  br label %wolfSSL_NewThread.exit.thread

wolfSSL_NewThread.exit.thread:                    ; preds = %5, %2, %wolfSSL_NewThread.exit
  %.0 = phi i32 [ %8, %wolfSSL_NewThread.exit ], [ -125, %5 ], [ -173, %2 ]
  call void @llvm.lifetime.end.p0(i64 8, ptr nonnull %3) #16
  ret i32 %.0
}